target datalayout = "e-m:e-p270:32:32-p271:32:32-p272:64:64-i64:64-i128:128-f80:128-n8:16:32:64-S128"
target triple = "x86_64-pc-linux-gnu"

%struct._dcerpc_info = type { ptr, i32, i64, i8, i8, i8, i32, i32, i32, i32, i32, i32, i32, i32, ptr, ptr, ptr, ptr, %struct.anon }
%struct.anon = type { i8, ptr, ptr, ptr, i8 }

@hf_netlogon_trust_extension = internal global i32 0, align 4
@hf_netlogon_dummy_string2 = internal global i32 0, align 4
@hf_netlogon_dummy_string3 = internal global i32 0, align 4
@hf_netlogon_dummy_string4 = internal global i32 0, align 4
@hf_netlogon_dummy1_long = internal global i32 0, align 4
@hf_netlogon_dummy2_long = internal global i32 0, align 4
@hf_netlogon_dummy3_long = internal global i32 0, align 4
@hf_netlogon_dummy4_long = internal global i32 0, align 4
@hf_dns_domain_info_sid = internal global i32 0, align 4
@hf_dns_domain_info_domain_guid = internal global i32 0, align 4
@hf_dns_domain_info_dns_forest = internal global i32 0, align 4
@hf_dns_domain_info_dns_domain = internal global i32 0, align 4
@hf_dns_domain_info_name = internal global i32 0, align 4
@ett_DOMAIN_TRUST_INFO = internal global i32 0, align 4
@ett_nt_counted_longs_as_string = internal global i32 0, align 4
@hf_nt_cs_len = external global i32, align 4
@hf_nt_cs_size = external global i32, align 4
@.str.1275 = private unnamed_addr constant [16 x i8] c"ONE_DOMAIN_INFO\00", align 1
@.str.1276 = private unnamed_addr constant [26 x i8] c"Pointer to Sid (dom_sid2)\00", align 1
@.str.1277 = private unnamed_addr constant [7 x i8] c"Buffer\00", align 1

; Function Attrs: null_pointer_is_valid sspstrong uwtable
define internal i32 @dissect_element_lsa_DnsDomainInfo_sid(ptr noundef %0, i32 noundef %1, ptr noundef %2, ptr noundef %3, ptr noundef %4, ptr noundef %5) #0 {
  %7 = alloca ptr, align 8
  %8 = alloca i32, align 4
  %9 = alloca ptr, align 8
  %10 = alloca ptr, align 8
  %11 = alloca ptr, align 8
  %12 = alloca ptr, align 8
  store ptr %0, ptr %7, align 8
  store i32 %1, ptr %8, align 4
  store ptr %2, ptr %9, align 8
  store ptr %3, ptr %10, align 8
  store ptr %4, ptr %11, align 8
  store ptr %5, ptr %12, align 8
  %13 = load ptr, ptr %7, align 8
  %14 = load i32, ptr %8, align 4
  %15 = load ptr, ptr %9, align 8
  %16 = load ptr, ptr %10, align 8
  %17 = load ptr, ptr %11, align 8
  %18 = load ptr, ptr %12, align 8
  %19 = load i32, ptr @hf_dns_domain_info_sid, align 4
  %20 = call i32 @dissect_ndr_embedded_pointer(ptr noundef %13, i32 noundef %14, ptr noundef %15, ptr noundef %16, ptr noundef %17, ptr noundef %18, ptr noundef @DomainInfo_sid_, i32 noundef 2, ptr noundef @.str.1276, i32 noundef %19)
  store i32 %20, ptr %8, align 4
  %21 = load i32, ptr %8, align 4
  ret i32 %21
}

; Function Attrs: null_pointer_is_valid sspstrong uwtable
define internal i32 @dissect_element_lsa_DnsDomainInfo_domain_guid(ptr noundef %0, i32 noundef %1, ptr noundef %2, ptr noundef %3, ptr noundef %4, ptr noundef %5) #0 {
  %7 = alloca ptr, align 8
  %8 = alloca i32, align 4
  %9 = alloca ptr, align 8
  %10 = alloca ptr, align 8
  %11 = alloca ptr, align 8
  %12 = alloca ptr, align 8
  store ptr %0, ptr %7, align 8
  store i32 %1, ptr %8, align 4
  store ptr %2, ptr %9, align 8
  store ptr %3, ptr %10, align 8
  store ptr %4, ptr %11, align 8
  store ptr %5, ptr %12, align 8
  %13 = load ptr, ptr %7, align 8
  %14 = load i32, ptr %8, align 4
  %15 = load ptr, ptr %9, align 8
  %16 = load ptr, ptr %10, align 8
  %17 = load ptr, ptr %11, align 8
  %18 = load ptr, ptr %12, align 8
  %19 = load i32, ptr @hf_dns_domain_info_domain_guid, align 4
  %20 = call i32 @dissect_ndr_uuid_t(ptr noundef %13, i32 noundef %14, ptr noundef %15, ptr noundef %16, ptr noundef %17, ptr noundef %18, i32 noundef %19, ptr noundef null)
  store i32 %20, ptr %8, align 4
  %21 = load i32, ptr %8, align 4
  ret i32 %21
}

; Function Attrs: null_pointer_is_valid sspstrong uwtable
define internal i32 @dissect_ndr_ulongs_as_counted_string(ptr noundef %0, i32 noundef %1, ptr noundef %2, ptr noundef %3, ptr noundef %4, ptr noundef %5, i32 noundef %6) #0 {
  %8 = alloca i32, align 4
  %9 = alloca ptr, align 8
  %10 = alloca i32, align 4
  %11 = alloca ptr, align 8
  %12 = alloca ptr, align 8
  %13 = alloca ptr, align 8
  %14 = alloca ptr, align 8
  %15 = alloca i32, align 4
  %16 = alloca i16, align 2
  %17 = alloca i16, align 2
  %18 = alloca i8, align 1
  %19 = alloca ptr, align 8
  %20 = alloca ptr, align 8
  %21 = alloca i32, align 4
  store ptr %0, ptr %9, align 8
  store i32 %1, ptr %10, align 4
  store ptr %2, ptr %11, align 8
  store ptr %3, ptr %12, align 8
  store ptr %4, ptr %13, align 8
  store ptr %5, ptr %14, align 8
  store i32 %6, ptr %15, align 4
  call void @llvm.lifetime.start.p0(i64 2, ptr %16) #15
  call void @llvm.lifetime.start.p0(i64 2, ptr %17) #15
  call void @llvm.lifetime.start.p0(i64 1, ptr %18) #15
  store i8 1, ptr %18, align 1
  call void @llvm.lifetime.start.p0(i64 8, ptr %19) #15
  call void @llvm.lifetime.start.p0(i64 8, ptr %20) #15
  %22 = load ptr, ptr %12, align 8
  store ptr %22, ptr %20, align 8
  %23 = load i8, ptr %18, align 1, !range !6, !noundef !7
  %24 = trunc i8 %23 to i1
  br i1 %24, label %25, label %33

25:                                               ; preds = %7
  %26 = load ptr, ptr %12, align 8
  %27 = load ptr, ptr %9, align 8
  %28 = load i32, ptr %10, align 4
  %29 = load i32, ptr @ett_nt_counted_longs_as_string, align 4
  %30 = load i32, ptr %15, align 4
  %31 = call ptr @proto_registrar_get_name(i32 noundef %30)
  %32 = call ptr @proto_tree_add_subtree(ptr noundef %26, ptr noundef %27, i32 noundef %28, i32 noundef 0, i32 noundef %29, ptr noundef %19, ptr noundef %31)
  store ptr %32, ptr %20, align 8
  br label %33

33:                                               ; preds = %25, %7
  %34 = load ptr, ptr %13, align 8
  %35 = getelementptr inbounds nuw %struct._dcerpc_info, ptr %34, i32 0, i32 4
  %36 = load i8, ptr %35, align 1, !range !6, !noundef !7
  %37 = trunc i8 %36 to i1
  br i1 %37, label %47, label %38

38:                                               ; preds = %33
  %39 = load i32, ptr %10, align 4
  %40 = and i32 %39, 3
  %41 = icmp ne i32 %40, 0
  br i1 %41, label %42, label %46

42:                                               ; preds = %38
  %43 = load i32, ptr %10, align 4
  %44 = and i32 %43, -4
  %45 = add i32 %44, 4
  store i32 %45, ptr %10, align 4
  br label %46

46:                                               ; preds = %42, %38
  br label %47

47:                                               ; preds = %46, %33
  %48 = load ptr, ptr %13, align 8
  %49 = getelementptr inbounds nuw %struct._dcerpc_info, ptr %48, i32 0, i32 4
  %50 = load i8, ptr %49, align 1, !range !6, !noundef !7
  %51 = trunc i8 %50 to i1
  br i1 %51, label %52, label %54

52:                                               ; preds = %47
  %53 = load i32, ptr %10, align 4
  store i32 %53, ptr %8, align 4
  store i32 1, ptr %21, align 4
  br label %80

54:                                               ; preds = %47
  %55 = load ptr, ptr %9, align 8
  %56 = load i32, ptr %10, align 4
  %57 = load ptr, ptr %11, align 8
  %58 = load ptr, ptr %20, align 8
  %59 = load ptr, ptr %13, align 8
  %60 = load ptr, ptr %14, align 8
  %61 = load i32, ptr @hf_nt_cs_len, align 4
  %62 = call i32 @dissect_ndr_uint16(ptr noundef %55, i32 noundef %56, ptr noundef %57, ptr noundef %58, ptr noundef %59, ptr noundef %60, i32 noundef %61, ptr noundef %16)
  store i32 %62, ptr %10, align 4
  %63 = load ptr, ptr %9, align 8
  %64 = load i32, ptr %10, align 4
  %65 = load ptr, ptr %11, align 8
  %66 = load ptr, ptr %20, align 8
  %67 = load ptr, ptr %13, align 8
  %68 = load ptr, ptr %14, align 8
  %69 = load i32, ptr @hf_nt_cs_size, align 4
  %70 = call i32 @dissect_ndr_uint16(ptr noundef %63, i32 noundef %64, ptr noundef %65, ptr noundef %66, ptr noundef %67, ptr noundef %68, i32 noundef %69, ptr noundef %17)
  store i32 %70, ptr %10, align 4
  %71 = load ptr, ptr %9, align 8
  %72 = load i32, ptr %10, align 4
  %73 = load ptr, ptr %11, align 8
  %74 = load ptr, ptr %20, align 8
  %75 = load ptr, ptr %13, align 8
  %76 = load ptr, ptr %14, align 8
  %77 = load i32, ptr %15, align 4
  %78 = call i32 @dissect_ndr_pointer_cb(ptr noundef %71, i32 noundef %72, ptr noundef %73, ptr noundef %74, ptr noundef %75, ptr noundef %76, ptr noundef @dissect_ndr_trust_extension, i32 noundef 2, ptr noundef @.str.1277, i32 noundef %77, ptr noundef null, ptr noundef null)
  store i32 %78, ptr %10, align 4
  %79 = load i32, ptr %10, align 4
  store i32 %79, ptr %8, align 4
  store i32 1, ptr %21, align 4
  br label %80

80:                                               ; preds = %54, %52
  call void @llvm.lifetime.end.p0(i64 8, ptr %20) #15
  call void @llvm.lifetime.end.p0(i64 8, ptr %19) #15
  call void @llvm.lifetime.end.p0(i64 1, ptr %18) #15
  call void @llvm.lifetime.end.p0(i64 2, ptr %17) #15
  call void @llvm.lifetime.end.p0(i64 2, ptr %16) #15
  %81 = load i32, ptr %8, align 4
  ret i32 %81
}

; Function Attrs: null_pointer_is_valid sspstrong uwtable
define internal i32 @dissect_part_DnsDomainInfo(ptr noundef %0, i32 noundef %1, ptr noundef %2, ptr noundef %3, ptr noundef %4, ptr noundef %5, i32 noundef %6, i32 noundef %7) #0 {
  %9 = alloca ptr, align 8
  %10 = alloca i32, align 4
  %11 = alloca ptr, align 8
  %12 = alloca ptr, align 8
  %13 = alloca ptr, align 8
  %14 = alloca ptr, align 8
  %15 = alloca i32, align 4
  %16 = alloca i32, align 4
  store ptr %0, ptr %9, align 8
  store i32 %1, ptr %10, align 4
  store ptr %2, ptr %11, align 8
  store ptr %3, ptr %12, align 8
  store ptr %4, ptr %13, align 8
  store ptr %5, ptr %14, align 8
  store i32 %6, ptr %15, align 4
  store i32 %7, ptr %16, align 4
  %17 = load ptr, ptr %9, align 8
  %18 = load i32, ptr %10, align 4
  %19 = load ptr, ptr %11, align 8
  %20 = load ptr, ptr %12, align 8
  %21 = load ptr, ptr %13, align 8
  %22 = load ptr, ptr %14, align 8
  %23 = load i32, ptr @hf_dns_domain_info_name, align 4
  %24 = call i32 @lsarpc_dissect_struct_lsa_StringLarge(ptr noundef %17, i32 noundef %18, ptr noundef %19, ptr noundef %20, ptr noundef %21, ptr noundef %22, i32 noundef %23, i32 noundef 0)
  store i32 %24, ptr %10, align 4
  %25 = load ptr, ptr %9, align 8
  %26 = load i32, ptr %10, align 4
  %27 = load ptr, ptr %11, align 8
  %28 = load ptr, ptr %12, align 8
  %29 = load ptr, ptr %13, align 8
  %30 = load ptr, ptr %14, align 8
  %31 = load i32, ptr @hf_dns_domain_info_dns_domain, align 4
  %32 = call i32 @lsarpc_dissect_struct_lsa_StringLarge(ptr noundef %25, i32 noundef %26, ptr noundef %27, ptr noundef %28, ptr noundef %29, ptr noundef %30, i32 noundef %31, i32 noundef 0)
  store i32 %32, ptr %10, align 4
  %33 = load ptr, ptr %9, align 8
  %34 = load i32, ptr %10, align 4
  %35 = load ptr, ptr %11, align 8
  %36 = load ptr, ptr %12, align 8
  %37 = load ptr, ptr %13, align 8
  %38 = load ptr, ptr %14, align 8
  %39 = load i32, ptr @hf_dns_domain_info_dns_forest, align 4
  %40 = call i32 @lsarpc_dissect_struct_lsa_StringLarge(ptr noundef %33, i32 noundef %34, ptr noundef %35, ptr noundef %36, ptr noundef %37, ptr noundef %38, i32 noundef %39, i32 noundef 0)
  store i32 %40, ptr %10, align 4
  %41 = load ptr, ptr %9, align 8
  %42 = load i32, ptr %10, align 4
  %43 = load ptr, ptr %11, align 8
  %44 = load ptr, ptr %12, align 8
  %45 = load ptr, ptr %13, align 8
  %46 = load ptr, ptr %14, align 8
  %47 = call i32 @dissect_element_lsa_DnsDomainInfo_domain_guid(ptr noundef %41, i32 noundef %42, ptr noundef %43, ptr noundef %44, ptr noundef %45, ptr noundef %46)
  store i32 %47, ptr %10, align 4
  %48 = load ptr, ptr %9, align 8
  %49 = load i32, ptr %10, align 4
  %50 = load ptr, ptr %11, align 8
  %51 = load ptr, ptr %12, align 8
  %52 = load ptr, ptr %13, align 8
  %53 = load ptr, ptr %14, align 8
  %54 = call i32 @dissect_element_lsa_DnsDomainInfo_sid(ptr noundef %48, i32 noundef %49, ptr noundef %50, ptr noundef %51, ptr noundef %52, ptr noundef %53)
  store i32 %54, ptr %10, align 4
  %55 = load i32, ptr %10, align 4
  ret i32 %55
}

; Function Attrs: null_pointer_is_valid sspstrong uwtable
define internal i32 @netlogon_dissect_ONE_DOMAIN_INFO(ptr noundef %0, i32 noundef %1, ptr noundef %2, ptr noundef %3, ptr noundef %4, ptr noundef %5) #0 {
  %7 = alloca ptr, align 8
  %8 = alloca i32, align 4
  %9 = alloca ptr, align 8
  %10 = alloca ptr, align 8
  %11 = alloca ptr, align 8
  %12 = alloca ptr, align 8
  %13 = alloca ptr, align 8
  %14 = alloca ptr, align 8
  %15 = alloca i32, align 4
  store ptr %0, ptr %7, align 8
  store i32 %1, ptr %8, align 4
  store ptr %2, ptr %9, align 8
  store ptr %3, ptr %10, align 8
  store ptr %4, ptr %11, align 8
  store ptr %5, ptr %12, align 8
  call void @llvm.lifetime.start.p0(i64 8, ptr %13) #15
  store ptr null, ptr %13, align 8
  call void @llvm.lifetime.start.p0(i64 8, ptr %14) #15
  store ptr null, ptr %14, align 8
  call void @llvm.lifetime.start.p0(i64 4, ptr %15) #15
  %16 = load i32, ptr %8, align 4
  store i32 %16, ptr %15, align 4
  %17 = load ptr, ptr %10, align 8
  %18 = icmp ne ptr %17, null
  br i1 %18, label %19, label %25

19:                                               ; preds = %6
  %20 = load ptr, ptr %10, align 8
  %21 = load ptr, ptr %7, align 8
  %22 = load i32, ptr %8, align 4
  %23 = load i32, ptr @ett_DOMAIN_TRUST_INFO, align 4
  %24 = call ptr @proto_tree_add_subtree(ptr noundef %20, ptr noundef %21, i32 noundef %22, i32 noundef 0, i32 noundef %23, ptr noundef %13, ptr noundef @.str.1275)
  store ptr %24, ptr %14, align 8
  br label %25

25:                                               ; preds = %19, %6
  %26 = load ptr, ptr %7, align 8
  %27 = load i32, ptr %8, align 4
  %28 = load ptr, ptr %9, align 8
  %29 = load ptr, ptr %14, align 8
  %30 = load ptr, ptr %11, align 8
  %31 = load ptr, ptr %12, align 8
  %32 = call i32 @dissect_part_DnsDomainInfo(ptr noundef %26, i32 noundef %27, ptr noundef %28, ptr noundef %29, ptr noundef %30, ptr noundef %31, i32 noundef 0, i32 noundef 0)
  store i32 %32, ptr %8, align 4
  %33 = load ptr, ptr %7, align 8
  %34 = load i32, ptr %8, align 4
  %35 = load ptr, ptr %9, align 8
  %36 = load ptr, ptr %14, align 8
  %37 = load ptr, ptr %11, align 8
  %38 = load ptr, ptr %12, align 8
  %39 = load i32, ptr @hf_netlogon_trust_extension, align 4
  %40 = call i32 @dissect_ndr_ulongs_as_counted_string(ptr noundef %33, i32 noundef %34, ptr noundef %35, ptr noundef %36, ptr noundef %37, ptr noundef %38, i32 noundef %39)
  store i32 %40, ptr %8, align 4
  %41 = load ptr, ptr %7, align 8
  %42 = load i32, ptr %8, align 4
  %43 = load ptr, ptr %9, align 8
  %44 = load ptr, ptr %14, align 8
  %45 = load ptr, ptr %11, align 8
  %46 = load ptr, ptr %12, align 8
  %47 = load i32, ptr @hf_netlogon_dummy_string2, align 4
  %48 = call i32 @dissect_ndr_counted_string(ptr noundef %41, i32 noundef %42, ptr noundef %43, ptr noundef %44, ptr noundef %45, ptr noundef %46, i32 noundef %47, i32 noundef 0)
  store i32 %48, ptr %8, align 4
  %49 = load ptr, ptr %7, align 8
  %50 = load i32, ptr %8, align 4
  %51 = load ptr, ptr %9, align 8
  %52 = load ptr, ptr %14, align 8
  %53 = load ptr, ptr %11, align 8
  %54 = load ptr, ptr %12, align 8
  %55 = load i32, ptr @hf_netlogon_dummy_string3, align 4
  %56 = call i32 @dissect_ndr_counted_string(ptr noundef %49, i32 noundef %50, ptr noundef %51, ptr noundef %52, ptr noundef %53, ptr noundef %54, i32 noundef %55, i32 noundef 0)
  store i32 %56, ptr %8, align 4
  %57 = load ptr, ptr %7, align 8
  %58 = load i32, ptr %8, align 4
  %59 = load ptr, ptr %9, align 8
  %60 = load ptr, ptr %14, align 8
  %61 = load ptr, ptr %11, align 8
  %62 = load ptr, ptr %12, align 8
  %63 = load i32, ptr @hf_netlogon_dummy_string4, align 4
  %64 = call i32 @dissect_ndr_counted_string(ptr noundef %57, i32 noundef %58, ptr noundef %59, ptr noundef %60, ptr noundef %61, ptr noundef %62, i32 noundef %63, i32 noundef 0)
  store i32 %64, ptr %8, align 4
  %65 = load ptr, ptr %7, align 8
  %66 = load i32, ptr %8, align 4
  %67 = load ptr, ptr %9, align 8
  %68 = load ptr, ptr %14, align 8
  %69 = load ptr, ptr %11, align 8
  %70 = load ptr, ptr %12, align 8
  %71 = load i32, ptr @hf_netlogon_dummy1_long, align 4
  %72 = call i32 @dissect_ndr_uint32(ptr noundef %65, i32 noundef %66, ptr noundef %67, ptr noundef %68, ptr noundef %69, ptr noundef %70, i32 noundef %71, ptr noundef null)
  store i32 %72, ptr %8, align 4
  %73 = load ptr, ptr %7, align 8
  %74 = load i32, ptr %8, align 4
  %75 = load ptr, ptr %9, align 8
  %76 = load ptr, ptr %14, align 8
  %77 = load ptr, ptr %11, align 8
  %78 = load ptr, ptr %12, align 8
  %79 = load i32, ptr @hf_netlogon_dummy2_long, align 4
  %80 = call i32 @dissect_ndr_uint32(ptr noundef %73, i32 noundef %74, ptr noundef %75, ptr noundef %76, ptr noundef %77, ptr noundef %78, i32 noundef %79, ptr noundef null)
  store i32 %80, ptr %8, align 4
  %81 = load ptr, ptr %7, align 8
  %82 = load i32, ptr %8, align 4
  %83 = load ptr, ptr %9, align 8
  %84 = load ptr, ptr %14, align 8
  %85 = load ptr, ptr %11, align 8
  %86 = load ptr, ptr %12, align 8
  %87 = load i32, ptr @hf_netlogon_dummy3_long, align 4
  %88 = call i32 @dissect_ndr_uint32(ptr noundef %81, i32 noundef %82, ptr noundef %83, ptr noundef %84, ptr noundef %85, ptr noundef %86, i32 noundef %87, ptr noundef null)
  store i32 %88, ptr %8, align 4
  %89 = load ptr, ptr %7, align 8
  %90 = load i32, ptr %8, align 4
  %91 = load ptr, ptr %9, align 8
  %92 = load ptr, ptr %14, align 8
  %93 = load ptr, ptr %11, align 8
  %94 = load ptr, ptr %12, align 8
  %95 = load i32, ptr @hf_netlogon_dummy4_long, align 4
  %96 = call i32 @dissect_ndr_uint32(ptr noundef %89, i32 noundef %90, ptr noundef %91, ptr noundef %92, ptr noundef %93, ptr noundef %94, i32 noundef %95, ptr noundef null)
  store i32 %96, ptr %8, align 4
  %97 = load ptr, ptr %13, align 8
  %98 = load i32, ptr %8, align 4
  %99 = load i32, ptr %15, align 4
  %100 = sub i32 %98, %99
  call void @proto_item_set_len(ptr noundef %97, i32 noundef %100)
  %101 = load i32, ptr %8, align 4
  call void @llvm.lifetime.end.p0(i64 4, ptr %15) #15
  call void @llvm.lifetime.end.p0(i64 8, ptr %14) #15
  call void @llvm.lifetime.end.p0(i64 8, ptr %13) #15
  ret i32 %101
}