; Function Attrs: null_pointer_is_valid sspstrong uwtable
define internal i32 @netlogon_dissect_ONE_DOMAIN_INFO(ptr noundef %0, i32 noundef %1, ptr noundef %2, ptr noundef %3, ptr noundef %4, ptr noundef %5) #0 {
  %7 = alloca i16, align 2
  %8 = alloca i16, align 2
  %9 = alloca ptr, align 8
  %10 = alloca ptr, align 8
  call void @llvm.lifetime.start.p0(i64 8, ptr nonnull %10) #15
  store ptr null, ptr %10, align 8
  %.not = icmp eq ptr %3, null
  br i1 %.not, label %14, label %11

11:                                               ; preds = %6
  %12 = load i32, ptr @ett_DOMAIN_TRUST_INFO, align 4
  %13 = call ptr @proto_tree_add_subtree(ptr noundef nonnull %3, ptr noundef %0, i32 noundef %1, i32 noundef 0, i32 noundef %12, ptr noundef nonnull %10, ptr noundef nonnull @.str.1275)
  br label %14

14:                                               ; preds = %11, %6
  %.0 = phi ptr [ %13, %11 ], [ null, %6 ]
  %15 = load i32, ptr @hf_dns_domain_info_name, align 4
  %16 = call i32 @lsarpc_dissect_struct_lsa_StringLarge(ptr noundef %0, i32 noundef %1, ptr noundef %2, ptr noundef %.0, ptr noundef %4, ptr noundef %5, i32 noundef %15, i32 noundef 0)
  %17 = load i32, ptr @hf_dns_domain_info_dns_domain, align 4
  %18 = call i32 @lsarpc_dissect_struct_lsa_StringLarge(ptr noundef %0, i32 noundef %16, ptr noundef %2, ptr noundef %.0, ptr noundef %4, ptr noundef %5, i32 noundef %17, i32 noundef 0)
  %19 = load i32, ptr @hf_dns_domain_info_dns_forest, align 4
  %20 = call i32 @lsarpc_dissect_struct_lsa_StringLarge(ptr noundef %0, i32 noundef %18, ptr noundef %2, ptr noundef %.0, ptr noundef %4, ptr noundef %5, i32 noundef %19, i32 noundef 0)
  %21 = load i32, ptr @hf_dns_domain_info_domain_guid, align 4
  %22 = call i32 @dissect_ndr_uuid_t(ptr noundef %0, i32 noundef %20, ptr noundef %2, ptr noundef %.0, ptr noundef %4, ptr noundef %5, i32 noundef %21, ptr noundef null)
  %23 = load i32, ptr @hf_dns_domain_info_sid, align 4
  %24 = call i32 @dissect_ndr_embedded_pointer(ptr noundef %0, i32 noundef %22, ptr noundef %2, ptr noundef %.0, ptr noundef %4, ptr noundef %5, ptr noundef nonnull @DomainInfo_sid_, i32 noundef 2, ptr noundef nonnull @.str.1276, i32 noundef %23)
  %25 = load i32, ptr @hf_netlogon_trust_extension, align 4
  call void @llvm.lifetime.start.p0(i64 2, ptr nonnull %7) #15
  call void @llvm.lifetime.start.p0(i64 2, ptr nonnull %8) #15
  call void @llvm.lifetime.start.p0(i64 8, ptr nonnull %9) #15
  %26 = load i32, ptr @ett_nt_counted_longs_as_string, align 4
  %27 = call ptr @proto_registrar_get_name(i32 noundef %25)
  %28 = call ptr @proto_tree_add_subtree(ptr noundef %.0, ptr noundef %0, i32 noundef %24, i32 noundef 0, i32 noundef %26, ptr noundef nonnull %9, ptr noundef %27)
  %29 = getelementptr inbounds nuw i8, ptr %4, i64 25
  %30 = load i8, ptr %29, align 1, !range !6, !noundef !7
  %31 = trunc nuw i8 %30 to i1
  br i1 %31, label %dissect_ndr_ulongs_as_counted_string.exit, label %32

32:                                               ; preds = %14
  %.biased.i = add i32 %24, 3
  %.032.i = and i32 %.biased.i, -4
  %33 = load i32, ptr @hf_nt_cs_len, align 4
  %34 = call i32 @dissect_ndr_uint16(ptr noundef %0, i32 noundef %.032.i, ptr noundef %2, ptr noundef %28, ptr noundef %4, ptr noundef %5, i32 noundef %33, ptr noundef nonnull %7)
  %35 = load i32, ptr @hf_nt_cs_size, align 4
  %36 = call i32 @dissect_ndr_uint16(ptr noundef %0, i32 noundef %34, ptr noundef %2, ptr noundef %28, ptr noundef %4, ptr noundef %5, i32 noundef %35, ptr noundef nonnull %8)
  %37 = call i32 @dissect_ndr_pointer_cb(ptr noundef %0, i32 noundef %36, ptr noundef %2, ptr noundef %28, ptr noundef %4, ptr noundef %5, ptr noundef nonnull @dissect_ndr_trust_extension, i32 noundef 2, ptr noundef nonnull @.str.1277, i32 noundef %25, ptr noundef null, ptr noundef null)
  br label %dissect_ndr_ulongs_as_counted_string.exit

dissect_ndr_ulongs_as_counted_string.exit:        ; preds = %14, %32
  %.031.i = phi i32 [ %37, %32 ], [ %24, %14 ]
  call void @llvm.lifetime.end.p0(i64 8, ptr nonnull %9) #15
  call void @llvm.lifetime.end.p0(i64 2, ptr nonnull %8) #15
  call void @llvm.lifetime.end.p0(i64 2, ptr nonnull %7) #15
  %38 = load i32, ptr @hf_netlogon_dummy_string2, align 4
  %39 = call i32 @dissect_ndr_counted_string(ptr noundef %0, i32 noundef %.031.i, ptr noundef %2, ptr noundef %.0, ptr noundef %4, ptr noundef %5, i32 noundef %38, i32 noundef 0)
  %40 = load i32, ptr @hf_netlogon_dummy_string3, align 4
  %41 = call i32 @dissect_ndr_counted_string(ptr noundef %0, i32 noundef %39, ptr noundef %2, ptr noundef %.0, ptr noundef %4, ptr noundef %5, i32 noundef %40, i32 noundef 0)
  %42 = load i32, ptr @hf_netlogon_dummy_string4, align 4
  %43 = call i32 @dissect_ndr_counted_string(ptr noundef %0, i32 noundef %41, ptr noundef %2, ptr noundef %.0, ptr noundef %4, ptr noundef %5, i32 noundef %42, i32 noundef 0)
  %44 = load i32, ptr @hf_netlogon_dummy1_long, align 4
  %45 = call i32 @dissect_ndr_uint32(ptr noundef %0, i32 noundef %43, ptr noundef %2, ptr noundef %.0, ptr noundef %4, ptr noundef %5, i32 noundef %44, ptr noundef null)
  %46 = load i32, ptr @hf_netlogon_dummy2_long, align 4
  %47 = call i32 @dissect_ndr_uint32(ptr noundef %0, i32 noundef %45, ptr noundef %2, ptr noundef %.0, ptr noundef %4, ptr noundef %5, i32 noundef %46, ptr noundef null)
  %48 = load i32, ptr @hf_netlogon_dummy3_long, align 4
  %49 = call i32 @dissect_ndr_uint32(ptr noundef %0, i32 noundef %47, ptr noundef %2, ptr noundef %.0, ptr noundef %4, ptr noundef %5, i32 noundef %48, ptr noundef null)
  %50 = load i32, ptr @hf_netlogon_dummy4_long, align 4
  %51 = call i32 @dissect_ndr_uint32(ptr noundef %0, i32 noundef %49, ptr noundef %2, ptr noundef %.0, ptr noundef %4, ptr noundef %5, i32 noundef %50, ptr noundef null)
  %52 = load ptr, ptr %10, align 8
  %53 = sub i32 %51, %1
  call void @proto_item_set_len(ptr noundef %52, i32 noundef %53)
  call void @llvm.lifetime.end.p0(i64 8, ptr nonnull %10) #15
  ret i32 %51
}